; Function Attrs: mustprogress nofree norecurse nosync nounwind willreturn memory(argmem: readwrite) uwtable
define noundef nonnull align 8 dereferenceable(16) ptr @_ZN5arrow15BasicDecimal128rSEj(ptr noundef nonnull returned align 8 captures(ret: address, provenance) dereferenceable(16) %0, i32 noundef %1) local_unnamed_addr #5 align 2 {
  %.not = icmp eq i32 %1, 0
  br i1 %.not, label %28, label %3

3:                                                ; preds = %2
  %4 = icmp ult i32 %1, 64
  br i1 %4, label %5, label %16

5:                                                ; preds = %3
  %6 = load i64, ptr %0, align 8, !tbaa !7
  %7 = zext nneg i32 %1 to i64
  %8 = lshr i64 %6, %7
  %9 = getelementptr inbounds nuw i8, ptr %0, i64 8
  %10 = load i64, ptr %9, align 8, !tbaa !7
  %11 = sub nuw nsw i32 64, %1
  %12 = zext nneg i32 %11 to i64
  %13 = shl i64 %10, %12
  %14 = or i64 %13, %8
  %15 = ashr i64 %10, %7
  br label %27

16:                                               ; preds = %3
  %17 = icmp ult i32 %1, 128
  %18 = getelementptr inbounds nuw i8, ptr %0, i64 8
  %19 = load i64, ptr %18, align 8, !tbaa !7
  br i1 %17, label %20, label %25

20:                                               ; preds = %16
  %21 = add nsw i32 %1, -64
  %22 = zext nneg i32 %21 to i64
  %23 = ashr i64 %19, %22
  %24 = ashr i64 %19, 63
  br label %27

25:                                               ; preds = %16
  %26 = ashr i64 %19, 63
  br label %27

27:                                               ; preds = %20, %25, %5
  %.011 = phi i64 [ %14, %5 ], [ %23, %20 ], [ %26, %25 ]
  %.0 = phi i64 [ %15, %5 ], [ %24, %20 ], [ %26, %25 ]
  store i64 %.011, ptr %0, align 8
  %.sroa.4.0..sroa_idx = getelementptr inbounds nuw i8, ptr %0, i64 8
  store i64 %.0, ptr %.sroa.4.0..sroa_idx, align 8
  br label %28

28:                                               ; preds = %27, %2
  ret ptr %0
}